target datalayout = "e-m:e-p270:32:32-p271:32:32-p272:64:64-i64:64-i128:128-f80:128-n8:16:32:64-S128"
target triple = "x86_64-pc-linux-gnu"

%struct.asn1_string_st = type { i32, i32, ptr, i64 }
%struct.IPAddressOrRange_st = type { i32, %union.anon.0 }
%union.anon.0 = type { ptr }
%struct.IPAddressRange_st = type { ptr, ptr }

; Function Attrs: nounwind uwtable
define internal i32 @addr_expand(ptr noundef %0, ptr noundef %1, i32 noundef %2, i8 noundef zeroext %3) #0 {
  %5 = alloca i32, align 4
  %6 = alloca ptr, align 8
  %7 = alloca ptr, align 8
  %8 = alloca i32, align 4
  %9 = alloca i8, align 1
  %10 = alloca i8, align 1
  store ptr %0, ptr %6, align 8, !tbaa !45
  store ptr %1, ptr %7, align 8, !tbaa !62
  store i32 %2, ptr %8, align 4, !tbaa !37
  store i8 %3, ptr %9, align 1, !tbaa !34
  %11 = load ptr, ptr %7, align 8, !tbaa !62
  %12 = getelementptr inbounds nuw %struct.asn1_string_st, ptr %11, i32 0, i32 0
  %13 = load i32, ptr %12, align 8, !tbaa !33
  %14 = icmp slt i32 %13, 0
  br i1 %14, label %21, label %15

15:                                               ; preds = %4
  %16 = load ptr, ptr %7, align 8, !tbaa !62
  %17 = getelementptr inbounds nuw %struct.asn1_string_st, ptr %16, i32 0, i32 0
  %18 = load i32, ptr %17, align 8, !tbaa !33
  %19 = load i32, ptr %8, align 4, !tbaa !37
  %20 = icmp sgt i32 %18, %19
  br i1 %20, label %21, label %22

21:                                               ; preds = %15, %4
  store i32 0, ptr %5, align 4
  br label %100

22:                                               ; preds = %15
  %23 = load ptr, ptr %7, align 8, !tbaa !62
  %24 = getelementptr inbounds nuw %struct.asn1_string_st, ptr %23, i32 0, i32 0
  %25 = load i32, ptr %24, align 8, !tbaa !33
  %26 = icmp sgt i32 %25, 0
  br i1 %26, label %27, label %84

27:                                               ; preds = %22
  %28 = load ptr, ptr %6, align 8, !tbaa !45
  %29 = load ptr, ptr %7, align 8, !tbaa !62
  %30 = getelementptr inbounds nuw %struct.asn1_string_st, ptr %29, i32 0, i32 2
  %31 = load ptr, ptr %30, align 8, !tbaa !29
  %32 = load ptr, ptr %7, align 8, !tbaa !62
  %33 = getelementptr inbounds nuw %struct.asn1_string_st, ptr %32, i32 0, i32 0
  %34 = load i32, ptr %33, align 8, !tbaa !33
  %35 = sext i32 %34 to i64
  call void @llvm.memcpy.p0.p0.i64(ptr align 1 %28, ptr align 1 %31, i64 %35, i1 false)
  %36 = load ptr, ptr %7, align 8, !tbaa !62
  %37 = getelementptr inbounds nuw %struct.asn1_string_st, ptr %36, i32 0, i32 3
  %38 = load i64, ptr %37, align 8, !tbaa !55
  %39 = and i64 %38, 7
  %40 = icmp ne i64 %39, 0
  br i1 %40, label %41, label %83

41:                                               ; preds = %27
  call void @llvm.lifetime.start.p0(i64 1, ptr %10) #9
  %42 = load ptr, ptr %7, align 8, !tbaa !62
  %43 = getelementptr inbounds nuw %struct.asn1_string_st, ptr %42, i32 0, i32 3
  %44 = load i64, ptr %43, align 8, !tbaa !55
  %45 = and i64 %44, 7
  %46 = sub nsw i64 8, %45
  %47 = trunc i64 %46 to i32
  %48 = ashr i32 255, %47
  %49 = trunc i32 %48 to i8
  store i8 %49, ptr %10, align 1, !tbaa !34
  %50 = load i8, ptr %9, align 1, !tbaa !34
  %51 = zext i8 %50 to i32
  %52 = icmp eq i32 %51, 0
  br i1 %52, label %53, label %68

53:                                               ; preds = %41
  %54 = load i8, ptr %10, align 1, !tbaa !34
  %55 = zext i8 %54 to i32
  %56 = xor i32 %55, -1
  %57 = load ptr, ptr %6, align 8, !tbaa !45
  %58 = load ptr, ptr %7, align 8, !tbaa !62
  %59 = getelementptr inbounds nuw %struct.asn1_string_st, ptr %58, i32 0, i32 0
  %60 = load i32, ptr %59, align 8, !tbaa !33
  %61 = sub nsw i32 %60, 1
  %62 = sext i32 %61 to i64
  %63 = getelementptr inbounds i8, ptr %57, i64 %62
  %64 = load i8, ptr %63, align 1, !tbaa !34
  %65 = zext i8 %64 to i32
  %66 = and i32 %65, %56
  %67 = trunc i32 %66 to i8
  store i8 %67, ptr %63, align 1, !tbaa !34
  br label %82

68:                                               ; preds = %41
  %69 = load i8, ptr %10, align 1, !tbaa !34
  %70 = zext i8 %69 to i32
  %71 = load ptr, ptr %6, align 8, !tbaa !45
  %72 = load ptr, ptr %7, align 8, !tbaa !62
  %73 = getelementptr inbounds nuw %struct.asn1_string_st, ptr %72, i32 0, i32 0
  %74 = load i32, ptr %73, align 8, !tbaa !33
  %75 = sub nsw i32 %74, 1
  %76 = sext i32 %75 to i64
  %77 = getelementptr inbounds i8, ptr %71, i64 %76
  %78 = load i8, ptr %77, align 1, !tbaa !34
  %79 = zext i8 %78 to i32
  %80 = or i32 %79, %70
  %81 = trunc i32 %80 to i8
  store i8 %81, ptr %77, align 1, !tbaa !34
  br label %82

82:                                               ; preds = %68, %53
  call void @llvm.lifetime.end.p0(i64 1, ptr %10) #9
  br label %83

83:                                               ; preds = %82, %27
  br label %84

84:                                               ; preds = %83, %22
  %85 = load ptr, ptr %6, align 8, !tbaa !45
  %86 = load ptr, ptr %7, align 8, !tbaa !62
  %87 = getelementptr inbounds nuw %struct.asn1_string_st, ptr %86, i32 0, i32 0
  %88 = load i32, ptr %87, align 8, !tbaa !33
  %89 = sext i32 %88 to i64
  %90 = getelementptr inbounds i8, ptr %85, i64 %89
  %91 = load i8, ptr %9, align 1, !tbaa !34
  %92 = zext i8 %91 to i32
  %93 = trunc i32 %92 to i8
  %94 = load i32, ptr %8, align 4, !tbaa !37
  %95 = load ptr, ptr %7, align 8, !tbaa !62
  %96 = getelementptr inbounds nuw %struct.asn1_string_st, ptr %95, i32 0, i32 0
  %97 = load i32, ptr %96, align 8, !tbaa !33
  %98 = sub nsw i32 %94, %97
  %99 = sext i32 %98 to i64
  call void @llvm.memset.p0.i64(ptr align 1 %90, i8 %93, i64 %99, i1 false)
  store i32 1, ptr %5, align 4
  br label %100

100:                                              ; preds = %84, %21
  %101 = load i32, ptr %5, align 4
  ret i32 %101
}

; Function Attrs: nounwind uwtable
define internal i32 @IPAddressOrRange_cmp(ptr noundef %0, ptr noundef %1, i32 noundef %2) #0 {
  %4 = alloca i32, align 4
  %5 = alloca ptr, align 8
  %6 = alloca ptr, align 8
  %7 = alloca i32, align 4
  %8 = alloca [16 x i8], align 16
  %9 = alloca [16 x i8], align 16
  %10 = alloca i32, align 4
  %11 = alloca i32, align 4
  %12 = alloca i32, align 4
  %13 = alloca i32, align 4
  store ptr %0, ptr %5, align 8, !tbaa !16
  store ptr %1, ptr %6, align 8, !tbaa !16
  store i32 %2, ptr %7, align 4, !tbaa !37
  call void @llvm.lifetime.start.p0(i64 16, ptr %8) #9
  call void @llvm.lifetime.start.p0(i64 16, ptr %9) #9
  call void @llvm.lifetime.start.p0(i64 4, ptr %10) #9
  store i32 0, ptr %10, align 4, !tbaa !37
  call void @llvm.lifetime.start.p0(i64 4, ptr %11) #9
  store i32 0, ptr %11, align 4, !tbaa !37
  call void @llvm.lifetime.start.p0(i64 4, ptr %12) #9
  %14 = load ptr, ptr %5, align 8, !tbaa !16
  %15 = getelementptr inbounds nuw %struct.IPAddressOrRange_st, ptr %14, i32 0, i32 0
  %16 = load i32, ptr %15, align 8, !tbaa !48
  switch i32 %16, label %56 [
    i32 0, label %17
    i32 1, label %42
  ]

17:                                               ; preds = %3
  %18 = getelementptr inbounds [16 x i8], ptr %8, i64 0, i64 0
  %19 = load ptr, ptr %5, align 8, !tbaa !16
  %20 = getelementptr inbounds nuw %struct.IPAddressOrRange_st, ptr %19, i32 0, i32 1
  %21 = load ptr, ptr %20, align 8, !tbaa !34
  %22 = load i32, ptr %7, align 4, !tbaa !37
  %23 = call i32 @addr_expand(ptr noundef %18, ptr noundef %21, i32 noundef %22, i8 noundef zeroext 0)
  %24 = icmp ne i32 %23, 0
  br i1 %24, label %26, label %25

25:                                               ; preds = %17
  store i32 -1, ptr %4, align 4
  store i32 1, ptr %13, align 4
  br label %114

26:                                               ; preds = %17
  %27 = load ptr, ptr %5, align 8, !tbaa !16
  %28 = getelementptr inbounds nuw %struct.IPAddressOrRange_st, ptr %27, i32 0, i32 1
  %29 = load ptr, ptr %28, align 8, !tbaa !34
  %30 = getelementptr inbounds nuw %struct.asn1_string_st, ptr %29, i32 0, i32 0
  %31 = load i32, ptr %30, align 8, !tbaa !33
  %32 = mul nsw i32 %31, 8
  %33 = sext i32 %32 to i64
  %34 = load ptr, ptr %5, align 8, !tbaa !16
  %35 = getelementptr inbounds nuw %struct.IPAddressOrRange_st, ptr %34, i32 0, i32 1
  %36 = load ptr, ptr %35, align 8, !tbaa !34
  %37 = getelementptr inbounds nuw %struct.asn1_string_st, ptr %36, i32 0, i32 3
  %38 = load i64, ptr %37, align 8, !tbaa !55
  %39 = and i64 %38, 7
  %40 = sub nsw i64 %33, %39
  %41 = trunc i64 %40 to i32
  store i32 %41, ptr %10, align 4, !tbaa !37
  br label %57

42:                                               ; preds = %3
  %43 = getelementptr inbounds [16 x i8], ptr %8, i64 0, i64 0
  %44 = load ptr, ptr %5, align 8, !tbaa !16
  %45 = getelementptr inbounds nuw %struct.IPAddressOrRange_st, ptr %44, i32 0, i32 1
  %46 = load ptr, ptr %45, align 8, !tbaa !34
  %47 = getelementptr inbounds nuw %struct.IPAddressRange_st, ptr %46, i32 0, i32 0
  %48 = load ptr, ptr %47, align 8, !tbaa !50
  %49 = load i32, ptr %7, align 4, !tbaa !37
  %50 = call i32 @addr_expand(ptr noundef %43, ptr noundef %48, i32 noundef %49, i8 noundef zeroext 0)
  %51 = icmp ne i32 %50, 0
  br i1 %51, label %53, label %52

52:                                               ; preds = %42
  store i32 -1, ptr %4, align 4
  store i32 1, ptr %13, align 4
  br label %114

53:                                               ; preds = %42
  %54 = load i32, ptr %7, align 4, !tbaa !37
  %55 = mul nsw i32 %54, 8
  store i32 %55, ptr %10, align 4, !tbaa !37
  br label %57

56:                                               ; preds = %3
  store i32 -1, ptr %4, align 4
  store i32 1, ptr %13, align 4
  br label %114

57:                                               ; preds = %53, %26
  %58 = load ptr, ptr %6, align 8, !tbaa !16
  %59 = getelementptr inbounds nuw %struct.IPAddressOrRange_st, ptr %58, i32 0, i32 0
  %60 = load i32, ptr %59, align 8, !tbaa !48
  switch i32 %60, label %100 [
    i32 0, label %61
    i32 1, label %86
  ]

61:                                               ; preds = %57
  %62 = getelementptr inbounds [16 x i8], ptr %9, i64 0, i64 0
  %63 = load ptr, ptr %6, align 8, !tbaa !16
  %64 = getelementptr inbounds nuw %struct.IPAddressOrRange_st, ptr %63, i32 0, i32 1
  %65 = load ptr, ptr %64, align 8, !tbaa !34
  %66 = load i32, ptr %7, align 4, !tbaa !37
  %67 = call i32 @addr_expand(ptr noundef %62, ptr noundef %65, i32 noundef %66, i8 noundef zeroext 0)
  %68 = icmp ne i32 %67, 0
  br i1 %68, label %70, label %69

69:                                               ; preds = %61
  store i32 -1, ptr %4, align 4
  store i32 1, ptr %13, align 4
  br label %114

70:                                               ; preds = %61
  %71 = load ptr, ptr %6, align 8, !tbaa !16
  %72 = getelementptr inbounds nuw %struct.IPAddressOrRange_st, ptr %71, i32 0, i32 1
  %73 = load ptr, ptr %72, align 8, !tbaa !34
  %74 = getelementptr inbounds nuw %struct.asn1_string_st, ptr %73, i32 0, i32 0
  %75 = load i32, ptr %74, align 8, !tbaa !33
  %76 = mul nsw i32 %75, 8
  %77 = sext i32 %76 to i64
  %78 = load ptr, ptr %6, align 8, !tbaa !16
  %79 = getelementptr inbounds nuw %struct.IPAddressOrRange_st, ptr %78, i32 0, i32 1
  %80 = load ptr, ptr %79, align 8, !tbaa !34
  %81 = getelementptr inbounds nuw %struct.asn1_string_st, ptr %80, i32 0, i32 3
  %82 = load i64, ptr %81, align 8, !tbaa !55
  %83 = and i64 %82, 7
  %84 = sub nsw i64 %77, %83
  %85 = trunc i64 %84 to i32
  store i32 %85, ptr %11, align 4, !tbaa !37
  br label %101

86:                                               ; preds = %57
  %87 = getelementptr inbounds [16 x i8], ptr %9, i64 0, i64 0
  %88 = load ptr, ptr %6, align 8, !tbaa !16
  %89 = getelementptr inbounds nuw %struct.IPAddressOrRange_st, ptr %88, i32 0, i32 1
  %90 = load ptr, ptr %89, align 8, !tbaa !34
  %91 = getelementptr inbounds nuw %struct.IPAddressRange_st, ptr %90, i32 0, i32 0
  %92 = load ptr, ptr %91, align 8, !tbaa !50
  %93 = load i32, ptr %7, align 4, !tbaa !37
  %94 = call i32 @addr_expand(ptr noundef %87, ptr noundef %92, i32 noundef %93, i8 noundef zeroext 0)
  %95 = icmp ne i32 %94, 0
  br i1 %95, label %97, label %96

96:                                               ; preds = %86
  store i32 -1, ptr %4, align 4
  store i32 1, ptr %13, align 4
  br label %114

97:                                               ; preds = %86
  %98 = load i32, ptr %7, align 4, !tbaa !37
  %99 = mul nsw i32 %98, 8
  store i32 %99, ptr %11, align 4, !tbaa !37
  br label %101

100:                                              ; preds = %57
  store i32 -1, ptr %4, align 4
  store i32 1, ptr %13, align 4
  br label %114

101:                                              ; preds = %97, %70
  %102 = getelementptr inbounds [16 x i8], ptr %8, i64 0, i64 0
  %103 = getelementptr inbounds [16 x i8], ptr %9, i64 0, i64 0
  %104 = load i32, ptr %7, align 4, !tbaa !37
  %105 = sext i32 %104 to i64
  %106 = call i32 @memcmp(ptr noundef %102, ptr noundef %103, i64 noundef %105) #10
  store i32 %106, ptr %12, align 4, !tbaa !37
  %107 = icmp ne i32 %106, 0
  br i1 %107, label %108, label %110

108:                                              ; preds = %101
  %109 = load i32, ptr %12, align 4, !tbaa !37
  store i32 %109, ptr %4, align 4
  store i32 1, ptr %13, align 4
  br label %114

110:                                              ; preds = %101
  %111 = load i32, ptr %10, align 4, !tbaa !37
  %112 = load i32, ptr %11, align 4, !tbaa !37
  %113 = sub nsw i32 %111, %112
  store i32 %113, ptr %4, align 4
  store i32 1, ptr %13, align 4
  br label %114

114:                                              ; preds = %110, %108, %100, %96, %69, %56, %52, %25
  call void @llvm.lifetime.end.p0(i64 4, ptr %12) #9
  call void @llvm.lifetime.end.p0(i64 4, ptr %11) #9
  call void @llvm.lifetime.end.p0(i64 4, ptr %10) #9
  call void @llvm.lifetime.end.p0(i64 16, ptr %9) #9
  call void @llvm.lifetime.end.p0(i64 16, ptr %8) #9
  %115 = load i32, ptr %4, align 4
  ret i32 %115
}