; Function Attrs: mustprogress nofree nounwind willreturn memory(readwrite, inaccessiblemem: none) uwtable
define internal fastcc i32 @IPAddressOrRange_cmp(ptr noundef readonly captures(none) %0, ptr noundef readonly captures(none) %1, i32 noundef range(i32 4, 17) %2) unnamed_addr #9 {
  %4 = alloca [16 x i8], align 16
  %5 = alloca [16 x i8], align 16
  call void @llvm.lifetime.start.p0(i64 16, ptr nonnull %4) #15
  call void @llvm.lifetime.start.p0(i64 16, ptr nonnull %5) #15
  %6 = load i32, ptr %0, align 8, !tbaa !25
  switch i32 %6, label %addr_expand.exit.thread [
    i32 0, label %7
    i32 1, label %37
  ]

7:                                                ; preds = %3
  %8 = getelementptr inbounds nuw i8, ptr %0, i64 8
  %9 = load ptr, ptr %8, align 8, !tbaa !16
  %10 = load i32, ptr %9, align 8, !tbaa !15
  %or.cond.i = icmp ugt i32 %10, %2
  br i1 %or.cond.i, label %addr_expand.exit.thread, label %11

11:                                               ; preds = %7
  %.not.i = icmp eq i32 %10, 0
  br i1 %.not.i, label %._crit_edge, label %12

._crit_edge:                                      ; preds = %11
  %.phi.trans.insert = getelementptr inbounds nuw i8, ptr %9, i64 16
  %.pre = load i64, ptr %.phi.trans.insert, align 8, !tbaa !34
  br label %28

12:                                               ; preds = %11
  %13 = getelementptr inbounds nuw i8, ptr %9, i64 8
  %14 = load ptr, ptr %13, align 8, !tbaa !10
  %15 = zext nneg i32 %10 to i64
  call void @llvm.memcpy.p0.p0.i64(ptr nonnull align 16 %4, ptr align 1 %14, i64 %15, i1 false)
  %16 = getelementptr inbounds nuw i8, ptr %9, i64 16
  %17 = load i64, ptr %16, align 8, !tbaa !34
  %18 = and i64 %17, 7
  %.not24.i = icmp eq i64 %18, 0
  br i1 %.not24.i, label %28, label %19

19:                                               ; preds = %12
  %20 = trunc nuw nsw i64 %18 to i16
  %21 = sub nuw nsw i16 8, %20
  %22 = ashr i16 -256, %21
  %23 = trunc nsw i16 %22 to i8
  %24 = getelementptr i8, ptr %4, i64 %15
  %25 = getelementptr i8, ptr %24, i64 -1
  %26 = load i8, ptr %25, align 1, !tbaa !16
  %27 = and i8 %26, %23
  store i8 %27, ptr %25, align 1, !tbaa !16
  br label %28

28:                                               ; preds = %._crit_edge, %19, %12
  %.pre-phi = phi i64 [ 0, %._crit_edge ], [ %15, %19 ], [ %15, %12 ]
  %29 = phi i64 [ %.pre, %._crit_edge ], [ %17, %19 ], [ %17, %12 ]
  %30 = getelementptr inbounds nuw i8, ptr %4, i64 %.pre-phi
  %31 = sub nsw i32 %2, %10
  %32 = sext i32 %31 to i64
  call void @llvm.memset.p0.i64(ptr nonnull align 1 %30, i8 0, i64 %32, i1 false)
  %33 = shl nuw nsw i32 %10, 3
  %34 = trunc i64 %29 to i32
  %35 = and i32 %34, 7
  %36 = sub nsw i32 %33, %35
  br label %63

37:                                               ; preds = %3
  %38 = getelementptr inbounds nuw i8, ptr %0, i64 8
  %39 = load ptr, ptr %38, align 8, !tbaa !16
  %40 = load ptr, ptr %39, align 8, !tbaa !29
  %41 = load i32, ptr %40, align 8, !tbaa !15
  %or.cond.i27 = icmp ugt i32 %41, %2
  br i1 %or.cond.i27, label %addr_expand.exit.thread, label %42

42:                                               ; preds = %37
  %.not.i28 = icmp eq i32 %41, 0
  br i1 %.not.i28, label %._crit_edge56, label %43

43:                                               ; preds = %42
  %44 = getelementptr inbounds nuw i8, ptr %40, i64 8
  %45 = load ptr, ptr %44, align 8, !tbaa !10
  %46 = zext nneg i32 %41 to i64
  call void @llvm.memcpy.p0.p0.i64(ptr nonnull align 16 %4, ptr align 1 %45, i64 %46, i1 false)
  %47 = getelementptr inbounds nuw i8, ptr %40, i64 16
  %48 = load i64, ptr %47, align 8, !tbaa !34
  %49 = and i64 %48, 7
  %.not24.i29 = icmp eq i64 %49, 0
  br i1 %.not24.i29, label %._crit_edge56, label %50

50:                                               ; preds = %43
  %51 = trunc nuw nsw i64 %49 to i16
  %52 = sub nuw nsw i16 8, %51
  %53 = ashr i16 -256, %52
  %54 = trunc nsw i16 %53 to i8
  %55 = getelementptr i8, ptr %4, i64 %46
  %56 = getelementptr i8, ptr %55, i64 -1
  %57 = load i8, ptr %56, align 1, !tbaa !16
  %58 = and i8 %57, %54
  store i8 %58, ptr %56, align 1, !tbaa !16
  br label %._crit_edge56

._crit_edge56:                                    ; preds = %42, %50, %43
  %.pre-phi61 = phi i64 [ %46, %50 ], [ %46, %43 ], [ 0, %42 ]
  %59 = getelementptr inbounds nuw i8, ptr %4, i64 %.pre-phi61
  %60 = sub nsw i32 %2, %41
  %61 = sext i32 %60 to i64
  call void @llvm.memset.p0.i64(ptr nonnull align 1 %59, i8 0, i64 %61, i1 false)
  %62 = shl nuw nsw i32 %2, 3
  br label %63

63:                                               ; preds = %._crit_edge56, %28
  %.021 = phi i32 [ %62, %._crit_edge56 ], [ %36, %28 ]
  %64 = load i32, ptr %1, align 8, !tbaa !25
  switch i32 %64, label %addr_expand.exit.thread [
    i32 0, label %65
    i32 1, label %95
  ]

65:                                               ; preds = %63
  %66 = getelementptr inbounds nuw i8, ptr %1, i64 8
  %67 = load ptr, ptr %66, align 8, !tbaa !16
  %68 = load i32, ptr %67, align 8, !tbaa !15
  %or.cond.i32 = icmp ugt i32 %68, %2
  br i1 %or.cond.i32, label %addr_expand.exit.thread, label %69

69:                                               ; preds = %65
  %.not.i33 = icmp eq i32 %68, 0
  br i1 %.not.i33, label %._crit_edge50, label %70

._crit_edge50:                                    ; preds = %69
  %.phi.trans.insert51 = getelementptr inbounds nuw i8, ptr %67, i64 16
  %.pre52 = load i64, ptr %.phi.trans.insert51, align 8, !tbaa !34
  br label %86

70:                                               ; preds = %69
  %71 = getelementptr inbounds nuw i8, ptr %67, i64 8
  %72 = load ptr, ptr %71, align 8, !tbaa !10
  %73 = zext nneg i32 %68 to i64
  call void @llvm.memcpy.p0.p0.i64(ptr nonnull align 16 %5, ptr align 1 %72, i64 %73, i1 false)
  %74 = getelementptr inbounds nuw i8, ptr %67, i64 16
  %75 = load i64, ptr %74, align 8, !tbaa !34
  %76 = and i64 %75, 7
  %.not24.i34 = icmp eq i64 %76, 0
  br i1 %.not24.i34, label %86, label %77

77:                                               ; preds = %70
  %78 = trunc nuw nsw i64 %76 to i16
  %79 = sub nuw nsw i16 8, %78
  %80 = ashr i16 -256, %79
  %81 = trunc nsw i16 %80 to i8
  %82 = getelementptr i8, ptr %5, i64 %73
  %83 = getelementptr i8, ptr %82, i64 -1
  %84 = load i8, ptr %83, align 1, !tbaa !16
  %85 = and i8 %84, %81
  store i8 %85, ptr %83, align 1, !tbaa !16
  br label %86

86:                                               ; preds = %._crit_edge50, %77, %70
  %.pre-phi55 = phi i64 [ 0, %._crit_edge50 ], [ %73, %77 ], [ %73, %70 ]
  %87 = phi i64 [ %.pre52, %._crit_edge50 ], [ %75, %77 ], [ %75, %70 ]
  %88 = getelementptr inbounds nuw i8, ptr %5, i64 %.pre-phi55
  %89 = sub nsw i32 %2, %68
  %90 = sext i32 %89 to i64
  call void @llvm.memset.p0.i64(ptr nonnull align 1 %88, i8 0, i64 %90, i1 false)
  %91 = shl nuw nsw i32 %68, 3
  %92 = trunc i64 %87 to i32
  %93 = and i32 %92, 7
  %94 = sub nsw i32 %91, %93
  br label %121

95:                                               ; preds = %63
  %96 = getelementptr inbounds nuw i8, ptr %1, i64 8
  %97 = load ptr, ptr %96, align 8, !tbaa !16
  %98 = load ptr, ptr %97, align 8, !tbaa !29
  %99 = load i32, ptr %98, align 8, !tbaa !15
  %or.cond.i37 = icmp ugt i32 %99, %2
  br i1 %or.cond.i37, label %addr_expand.exit.thread, label %100

100:                                              ; preds = %95
  %.not.i38 = icmp eq i32 %99, 0
  br i1 %.not.i38, label %._crit_edge57, label %101

101:                                              ; preds = %100
  %102 = getelementptr inbounds nuw i8, ptr %98, i64 8
  %103 = load ptr, ptr %102, align 8, !tbaa !10
  %104 = zext nneg i32 %99 to i64
  call void @llvm.memcpy.p0.p0.i64(ptr nonnull align 16 %5, ptr align 1 %103, i64 %104, i1 false)
  %105 = getelementptr inbounds nuw i8, ptr %98, i64 16
  %106 = load i64, ptr %105, align 8, !tbaa !34
  %107 = and i64 %106, 7
  %.not24.i39 = icmp eq i64 %107, 0
  br i1 %.not24.i39, label %._crit_edge57, label %108

108:                                              ; preds = %101
  %109 = trunc nuw nsw i64 %107 to i16
  %110 = sub nuw nsw i16 8, %109
  %111 = ashr i16 -256, %110
  %112 = trunc nsw i16 %111 to i8
  %113 = getelementptr i8, ptr %5, i64 %104
  %114 = getelementptr i8, ptr %113, i64 -1
  %115 = load i8, ptr %114, align 1, !tbaa !16
  %116 = and i8 %115, %112
  store i8 %116, ptr %114, align 1, !tbaa !16
  br label %._crit_edge57

._crit_edge57:                                    ; preds = %100, %108, %101
  %.pre-phi59 = phi i64 [ %104, %108 ], [ %104, %101 ], [ 0, %100 ]
  %117 = getelementptr inbounds nuw i8, ptr %5, i64 %.pre-phi59
  %118 = sub nsw i32 %2, %99
  %119 = sext i32 %118 to i64
  call void @llvm.memset.p0.i64(ptr nonnull align 1 %117, i8 0, i64 %119, i1 false)
  %120 = shl nuw nsw i32 %2, 3
  br label %121

121:                                              ; preds = %._crit_edge57, %86
  %.020 = phi i32 [ %120, %._crit_edge57 ], [ %94, %86 ]
  %122 = zext nneg i32 %2 to i64
  %123 = call i32 @memcmp(ptr noundef nonnull dereferenceable(1) %4, ptr noundef nonnull dereferenceable(1) %5, i64 noundef %122) #16
  %.not26 = icmp eq i32 %123, 0
  br i1 %.not26, label %124, label %addr_expand.exit.thread

124:                                              ; preds = %121
  %125 = sub nsw i32 %.021, %.020
  br label %addr_expand.exit.thread

addr_expand.exit.thread:                          ; preds = %95, %65, %37, %7, %121, %63, %3, %124
  %.0 = phi i32 [ %125, %124 ], [ -1, %3 ], [ -1, %63 ], [ %123, %121 ], [ -1, %7 ], [ -1, %37 ], [ -1, %65 ], [ -1, %95 ]
  call void @llvm.lifetime.end.p0(i64 16, ptr nonnull %5) #15
  call void @llvm.lifetime.end.p0(i64 16, ptr nonnull %4) #15
  ret i32 %.0
}